(dp0
S'rel_input_att_name'
p1
S"['black']['yellow']['gold']"
p2
sS'count'
p3
S'2'
p4
sS'pred_ans'
p5
(lp6
V2
p7
acnumpy.core.multiarray
scalar
p8
(cnumpy
dtype
p9
(S'f4'
p10
I0
I1
tp11
Rp12
(I3
S'<'
p13
NNNI-1
I-1
I0
tp14
bS'\xd0.{?'
p15
tp16
Rp17
asS'gt_ans'
p18
(lp19
(lp20
g7
ag8
(g12
S'\x00\x00\x80?'
p21
tp22
Rp23
aasS'i_n_gate'
p24
cnumpy.core.multiarray
_reconstruct
p25
(cnumpy
ndarray
p26
(I0
tp27
S'b'
p28
tp29
Rp30
(I1
(I5
tp31
g12
I00
S'\x7fg\x1b>\xff\x03\xa8>5\x1e\xc9>\x93\xb1]=f\xcf\x95='
p32
tp33
bsS'vqa_obj_name'
p34
(lp35
S'clock'
p36
asS'cnt_map_blank'
p37
I00
sS'rel_map_same'
p38
I00
sS'question'
p39
Vhow many clocks can be seen on this building ? 
p40
sS'rel_input_obj_name'
p41
g35
sS'cnt_att_name'
p42
(lp43
S"['black']['gold']['large']"
p44
aS"['black']['yellow']['gold']"
p45
asS'objsub'
p46
g25
(g26
(I0
tp47
g28
tp48
Rp49
(I1
(I2
tp50
g12
I00
S'\x82\xf1\\?\xfa9\x0c>'
p51
tp52
bsS'vqa_att_name'
p53
S"['black']['yellow']['gold']"
p54
sS'gate_rel'
p55
(lp56
g25
(g26
(I0
tp57
g28
tp58
Rp59
(I1
(I2
tp60
g12
I00
S'\xef\x89h?\xf1x\x8d\xbf'
p61
tp62
ba(lp63
S'__no_relation__'
p64
aasS'rel_output_obj_name'
p65
g35
sS'obj'
p66
g35
sS'rel_output_att_name'
p67
S"['black']['gold']['large']"
p68
sS'att'
p69
(lp70
(lp71
S'black'
p72
aa(lp73
S'gold'
p74
aa(lp75
S'large'
p76
aasS'cnt_obj_name'
p77
(lp78
g35
ag35
as.