(dp0
S'rel_input_att_name'
p1
S"['stacked']['green']['piled']"
p2
sS'count'
p3
S'2'
p4
sS'pred_ans'
p5
(lp6
Vshelf
p7
acnumpy.core.multiarray
scalar
p8
(cnumpy
dtype
p9
(S'f4'
p10
I0
I1
tp11
Rp12
(I3
S'<'
p13
NNNI-1
I-1
I0
tp14
bS'\x18\xb6P?'
p15
tp16
Rp17
asS'gt_ans'
p18
(lp19
(lp20
g7
ag8
(g12
S'\x00\x00@?'
p21
tp22
Rp23
aa(lp24
Von shelf
p25
ag8
(g12
S'\x00\x00\x80>'
p26
tp27
Rp28
aasS'i_n_gate'
p29
cnumpy.core.multiarray
_reconstruct
p30
(cnumpy
ndarray
p31
(I0
tp32
S'b'
p33
tp34
Rp35
(I1
(I5
tp36
g12
I00
S'n\xbfB>m\xbe\x1a>\xdf<B>ar\xd3>\x13\x82e='
p37
tp38
bsS'vqa_obj_name'
p39
(lp40
S'books'
p41
asS'cnt_map_blank'
p42
I00
sS'rel_map_same'
p43
I00
sS'question'
p44
Vwhere are the books ? 
p45
sS'rel_input_obj_name'
p46
g40
sS'cnt_att_name'
p47
(lp48
S"['white']['open']['small']"
p49
aS"['white']['wooden']['small']"
p50
aS"['white']['small']['wooden']"
p51
aS"['white']['wooden']['small']"
p52
asS'objsub'
p53
g30
(g31
(I0
tp54
g33
tp55
Rp56
(I1
(I2
tp57
g12
I00
S'\x05\x8dF<\xcc\xe5|?'
p58
tp59
bsS'vqa_att_name'
p60
S"['stacked']['green']['piled']"
p61
sS'gate_rel'
p62
(lp63
g30
(g31
(I0
tp64
g33
tp65
Rp66
(I1
(I2
tp67
g12
I00
S'\x15\xe3X\xbeD\xbe\x92>'
p68
tp69
ba(lp70
S'near'
p71
aS'next to'
p72
aS'by'
p73
aS'at'
p74
aS'around'
p75
aS'beside'
p76
aasS'rel_output_obj_name'
p77
(lp78
S'shelf'
p79
asS'obj'
p80
g78
sS'rel_output_att_name'
p81
S"['white']['wooden']['small']"
p82
sS'att'
p83
(lp84
(lp85
S'white'
p86
aa(lp87
S'small'
p88
aa(lp89
S'green'
p90
aasS'cnt_obj_name'
p91
(lp92
g78
ag78
ag78
ag78
as.