(dp0
S'rel_input_att_name'
p1
S"['black']['blue']['parked']"
p2
sS'count'
p3
S'1'
p4
sS'pred_ans'
p5
(lp6
Vhelmet
p7
acnumpy.core.multiarray
scalar
p8
(cnumpy
dtype
p9
(S'f4'
p10
I0
I1
tp11
Rp12
(I3
S'<'
p13
NNNI-1
I-1
I0
tp14
bS'\xd4\xc8\x1a>'
p15
tp16
Rp17
asS'gt_ans'
p18
(lp19
(lp20
g7
ag8
(g12
S'\xab\xaa*>'
p21
tp22
Rp23
aa(lp24
Vbag
p25
ag8
(g12
S'\x00\x00\x00?'
p26
tp27
Rp28
aa(lp29
Vengine
p30
ag8
(g12
S'\xab\xaa*>'
p31
tp32
Rp33
aa(lp34
Vstorage
p35
ag8
(g12
S'\xab\xaa*>'
p36
tp37
Rp38
aasS'i_n_gate'
p39
cnumpy.core.multiarray
_reconstruct
p40
(cnumpy
ndarray
p41
(I0
tp42
S'b'
p43
tp44
Rp45
(I1
(I5
tp46
g12
I00
S'f\x8f*=\x81\x9e\xab=W\xd4\x8c>V_\xf8>\x13K\xea='
p47
tp48
bsS'vqa_obj_name'
p49
(lp50
S'motorcycle'
p51
asS'cnt_map_blank'
p52
I00
sS'rel_map_same'
p53
I00
sS'question'
p54
Vwhat is on the back of this motorcycle ? 
p55
sS'rel_input_obj_name'
p56
g50
sS'cnt_att_name'
p57
(lp58
S"['black']['gray', 'grey']['large']"
p59
asS'objsub'
p60
g40
(g41
(I0
tp61
g43
tp62
Rp63
(I1
(I2
tp64
g12
I00
S'\xdcd}?\x19\xc9&<'
p65
tp66
bsS'vqa_att_name'
p67
S"['black']['blue']['parked']"
p68
sS'gate_rel'
p69
(lp70
g40
(g41
(I0
tp71
g43
tp72
Rp73
(I1
(I2
tp74
g12
I00
S'\x93 I\xbf\xea\xcd%?'
p75
tp76
ba(lp77
S'on'
p78
aS'on top of'
p79
aS'on a'
p80
aS'sitting on'
p81
aS'on side of'
p82
aS'are on'
p83
aS'attached to'
p84
aS'standing on'
p85
aS'walking on'
p86
aS'laying on'
p87
aasS'rel_output_obj_name'
p88
(lp89
S'bag'
p90
asS'obj'
p91
(lp92
S'seat'
p93
asS'rel_output_att_name'
p94
S"['black']['gray', 'grey']['large']"
p95
sS'att'
p96
(lp97
(lp98
S'black'
p99
aa(lp100
S'gray'
p101
aS'grey'
p102
aa(lp103
S'blue'
p104
aasS'cnt_obj_name'
p105
(lp106
g89
as.