(dp0
S'rel_input_att_name'
p1
S"['blue']['white']['cloudy']"
p2
sS'count'
p3
S'1'
p4
sS'pred_ans'
p5
(lp6
Vcloudy
p7
acnumpy.core.multiarray
scalar
p8
(cnumpy
dtype
p9
(S'f4'
p10
I0
I1
tp11
Rp12
(I3
S'<'
p13
NNNI-1
I-1
I0
tp14
bS'\xe4\xa9t?'
p15
tp16
Rp17
asS'gt_ans'
p18
(lp19
(lp20
g7
ag8
(g12
S'9\x8ec?'
p21
tp22
Rp23
aa(lp24
Vpartly cloudy
p25
ag8
(g12
S'9\x8e\xe3='
p26
tp27
Rp28
aasS'i_n_gate'
p29
cnumpy.core.multiarray
_reconstruct
p30
(cnumpy
ndarray
p31
(I0
tp32
S'b'
p33
tp34
Rp35
(I1
(I5
tp36
g12
I00
S"\xcb\xca'=r\xda\x1b>^\xae\xa6>[\x82\x82=y\xca\xd5>"
p37
tp38
bsS'vqa_obj_name'
p39
(lp40
S'sky'
p41
asS'cnt_map_blank'
p42
I00
sS'rel_map_same'
p43
I01
sS'question'
p44
Vwhat condition is the sky ? 
p45
sS'rel_input_obj_name'
p46
g40
sS'cnt_att_name'
p47
(lp48
S"['blue']['white']['cloudy']"
p49
asS'objsub'
p50
g30
(g31
(I0
tp51
g33
tp52
Rp53
(I1
(I2
tp54
g12
I00
S'\x84I2?\xf8l\x9b>'
p55
tp56
bsS'vqa_att_name'
p57
S"['blue']['white']['cloudy']"
p58
sS'gate_rel'
p59
(lp60
g30
(g31
(I0
tp61
g33
tp62
Rp63
(I1
(I2
tp64
g12
I00
S'\x1d\xd68?\xdd\xacU\xbf'
p65
tp66
ba(lp67
S'__no_relation__'
p68
aasS'rel_output_obj_name'
p69
g40
sS'obj'
p70
g40
sS'rel_output_att_name'
p71
S"['blue']['white']['cloudy']"
p72
sS'att'
p73
(lp74
(lp75
S'blue'
p76
aa(lp77
S'white'
p78
aa(lp79
S'cloudy'
p80
aasS'cnt_obj_name'
p81
(lp82
g40
as.