(dp0
S'rel_input_att_name'
p1
S"['red']['maroon']['brown']"
p2
sS'count'
p3
S'1'
p4
sS'pred_ans'
p5
(lp6
Vred
p7
acnumpy.core.multiarray
scalar
p8
(cnumpy
dtype
p9
(S'f4'
p10
I0
I1
tp11
Rp12
(I3
S'<'
p13
NNNI-1
I-1
I0
tp14
bS'P{~?'
p15
tp16
Rp17
asS'gt_ans'
p18
(lp19
(lp20
g7
ag8
(g12
S'\x00\x00\x80?'
p21
tp22
Rp23
aasS'i_n_gate'
p24
cnumpy.core.multiarray
_reconstruct
p25
(cnumpy
ndarray
p26
(I0
tp27
S'b'
p28
tp29
Rp30
(I1
(I5
tp31
g12
I00
S'\x94\x8f\xe7<\x90\x14\x11>\x7f\xc3\xec=^\x99\x90<%a2?'
p32
tp33
bsS'vqa_obj_name'
p34
(lp35
S'shirt'
p36
asS'cnt_map_blank'
p37
I00
sS'rel_map_same'
p38
I01
sS'question'
p39
Vwhat color is his shirt ? 
p40
sS'rel_input_obj_name'
p41
g35
sS'cnt_att_name'
p42
(lp43
S"['red']['maroon']['brown']"
p44
asS'objsub'
p45
g25
(g26
(I0
tp46
g28
tp47
Rp48
(I1
(I2
tp49
g12
I00
S'\x9c\xban?\x19+\x8a='
p50
tp51
bsS'vqa_att_name'
p52
S"['red']['maroon']['brown']"
p53
sS'gate_rel'
p54
(lp55
g25
(g26
(I0
tp56
g28
tp57
Rp58
(I1
(I2
tp59
g12
I00
S'\x96\x13\xbe?/\xf4\x81\xbf'
p60
tp61
ba(lp62
S'__no_relation__'
p63
aasS'rel_output_obj_name'
p64
g35
sS'obj'
p65
g35
sS'rel_output_att_name'
p66
S"['red']['maroon']['brown']"
p67
sS'att'
p68
(lp69
(lp70
S'red'
p71
aa(lp72
S'maroon'
p73
aa(lp74
S'brown'
p75
aasS'cnt_obj_name'
p76
(lp77
g35
as.