(dp0
S'rel_input_att_name'
p1
S"['white']['clean']['bathroom']"
p2
sS'count'
p3
S'1'
p4
sS'pred_ans'
p5
(lp6
Vbathroom
p7
acnumpy.core.multiarray
scalar
p8
(cnumpy
dtype
p9
(S'f4'
p10
I0
I1
tp11
Rp12
(I3
S'<'
p13
NNNI-1
I-1
I0
tp14
bS'p\xf8\x7f?'
p15
tp16
Rp17
asS'gt_ans'
p18
(lp19
(lp20
g7
ag8
(g12
S'\x00\x00\x80?'
p21
tp22
Rp23
aasS'i_n_gate'
p24
cnumpy.core.multiarray
_reconstruct
p25
(cnumpy
ndarray
p26
(I0
tp27
S'b'
p28
tp29
Rp30
(I1
(I5
tp31
g12
I00
S'\x86z\xfa<4\x13J=<P\x97>\xab2\x04?\x81\x81\xdd='
p32
tp33
bsS'vqa_obj_name'
p34
(lp35
S'bathroom'
p36
asS'cnt_map_blank'
p37
I00
sS'rel_map_same'
p38
I00
sS'question'
p39
Vwhich room is this ? 
p40
sS'rel_input_obj_name'
p41
g35
sS'cnt_att_name'
p42
(lp43
S"['white']['porcelain']['closed']"
p44
asS'objsub'
p45
g25
(g26
(I0
tp46
g28
tp47
Rp48
(I1
(I2
tp49
g12
I00
S'\xf2\xb1I>\x83\x93M?'
p50
tp51
bsS'vqa_att_name'
p52
S"['white']['clean']['bathroom']"
p53
sS'gate_rel'
p54
(lp55
g25
(g26
(I0
tp56
g28
tp57
Rp58
(I1
(I2
tp59
g12
I00
S'\xe8\xe6\xb5\xbe\x97\xba`>'
p60
tp61
ba(lp62
S'near'
p63
aS'next to'
p64
aS'by'
p65
aS'at'
p66
aS'around'
p67
aS'beside'
p68
aasS'rel_output_obj_name'
p69
(lp70
S'toilet'
p71
asS'obj'
p72
g70
sS'rel_output_att_name'
p73
S"['white']['porcelain']['closed']"
p74
sS'att'
p75
(lp76
(lp77
S'white'
p78
aa(lp79
S'closed'
p80
aa(lp81
S'small'
p82
aasS'cnt_obj_name'
p83
(lp84
g70
as.