(lp0
(dp1
S'image_id'
p2
I394773
sS'kind'
p3
S'coco'
p4
sS'question'
p5
(lp6
I15355
aI9395
aI15119
aI5157
aI987
aI15126
aI3490
aI3585
aI8463
asS'answers'
p7
(lp8
(lp9
I297
aF0.5
aa(lp10
I1010
aF0.16666666666666666
aa(lp11
I121
aF0.16666666666666666
aa(lp12
I1024
aF0.16666666666666666
aasS'question_id'
p13
I394773004
sa(dp14
g2
I132861
sg3
g4
sg5
(lp15
I221
aI1772
aI4117
aI5611
aI3116
aI9130
aI15119
aI3490
aI6458
aI8463
asg7
(lp16
(lp17
I3
aF1.0
aasg13
I132861004
sa(dp18
g2
I135071
sg3
g4
sg5
(lp19
I1710
aI15884
aI5157
aI3662
aI8463
asg7
(lp20
(lp21
I445
aF0.75
aa(lp22
I1160
aF0.25
aasg13
I135071001
sa(dp23
g2
I5314
sg3
g4
sg5
(lp24
I16840
aI8828
aI9395
aI3490
aI8463
asg7
(lp25
(lp26
I26
aF1.0
aasg13
I5314004
sa(dp27
g2
I399416
sg3
g4
sg5
(lp28
I15355
aI2239
aI9395
aI5157
aI3794
aI8463
asg7
(lp29
(lp30
I106
aF0.8888888888888888
aa(lp31
I2487
aF0.1111111111111111
aasg13
I399416005
sa(dp32
g2
I400925
sg3
g4
sg5
(lp33
I15355
aI14852
aI9395
aI15849
aI16038
aI8463
asg7
(lp34
(lp35
I7
aF1.0
aasg13
I400925003
sa.